target datalayout = "e-m:e-p270:32:32-p271:32:32-p272:64:64-i64:64-i128:128-f80:128-n8:16:32:64-S128"
target triple = "x86_64-pc-linux-gnu"

%struct.ossl_sha256_ctx = type { ptr }

@Curl_HMAC_SHA256 = hidden constant { ptr, ptr, ptr, i32, i32, i32, [4 x i8] } { ptr @my_sha256_init, ptr @my_sha256_update, ptr @my_sha256_final, i32 8, i32 64, i32 32, [4 x i8] zeroinitializer }, align 8

; Function Attrs: nounwind uwtable
define hidden i32 @Curl_sha256it(ptr noundef %0, ptr noundef %1, i64 noundef %2) #0 {
  %4 = alloca ptr, align 8
  %5 = alloca ptr, align 8
  %6 = alloca i64, align 8
  %7 = alloca i32, align 4
  %8 = alloca %struct.ossl_sha256_ctx, align 8
  store ptr %0, ptr %4, align 8, !tbaa !3
  store ptr %1, ptr %5, align 8, !tbaa !3
  store i64 %2, ptr %6, align 8, !tbaa !8
  call void @llvm.lifetime.start.p0(i64 4, ptr %7) #3
  call void @llvm.lifetime.start.p0(i64 8, ptr %8) #3
  %9 = call i32 @my_sha256_init(ptr noundef %8)
  store i32 %9, ptr %7, align 4, !tbaa !10
  %10 = load i32, ptr %7, align 4, !tbaa !10
  %11 = icmp ne i32 %10, 0
  br i1 %11, label %17, label %12

12:                                               ; preds = %3
  %13 = load ptr, ptr %5, align 8, !tbaa !3
  %14 = load i64, ptr %6, align 8, !tbaa !8
  %15 = call i32 @curlx_uztoui(i64 noundef %14)
  call void @my_sha256_update(ptr noundef %8, ptr noundef %13, i32 noundef %15)
  %16 = load ptr, ptr %4, align 8, !tbaa !3
  call void @my_sha256_final(ptr noundef %16, ptr noundef %8)
  br label %17

17:                                               ; preds = %12, %3
  %18 = load i32, ptr %7, align 4, !tbaa !10
  call void @llvm.lifetime.end.p0(i64 8, ptr %8) #3
  call void @llvm.lifetime.end.p0(i64 4, ptr %7) #3
  ret i32 %18
}

; Function Attrs: nocallback nofree nosync nounwind willreturn memory(argmem: readwrite)
declare void @llvm.lifetime.start.p0(i64 immarg, ptr captures(none)) #1

; Function Attrs: nounwind uwtable
define internal i32 @my_sha256_init(ptr noundef %0) #0 {
  %2 = alloca i32, align 4
  %3 = alloca ptr, align 8
  %4 = alloca ptr, align 8
  %5 = alloca i32, align 4
  store ptr %0, ptr %3, align 8, !tbaa !12
  call void @llvm.lifetime.start.p0(i64 8, ptr %4) #3
  %6 = load ptr, ptr %3, align 8, !tbaa !12
  store ptr %6, ptr %4, align 8, !tbaa !13
  %7 = call ptr @EVP_MD_CTX_new()
  %8 = load ptr, ptr %4, align 8, !tbaa !13
  %9 = getelementptr inbounds nuw %struct.ossl_sha256_ctx, ptr %8, i32 0, i32 0
  store ptr %7, ptr %9, align 8, !tbaa !15
  %10 = load ptr, ptr %4, align 8, !tbaa !13
  %11 = getelementptr inbounds nuw %struct.ossl_sha256_ctx, ptr %10, i32 0, i32 0
  %12 = load ptr, ptr %11, align 8, !tbaa !15
  %13 = icmp ne ptr %12, null
  br i1 %13, label %15, label %14

14:                                               ; preds = %1
  store i32 27, ptr %2, align 4
  store i32 1, ptr %5, align 4
  br label %27

15:                                               ; preds = %1
  %16 = load ptr, ptr %4, align 8, !tbaa !13
  %17 = getelementptr inbounds nuw %struct.ossl_sha256_ctx, ptr %16, i32 0, i32 0
  %18 = load ptr, ptr %17, align 8, !tbaa !15
  %19 = call ptr @EVP_sha256()
  %20 = call i32 @EVP_DigestInit_ex(ptr noundef %18, ptr noundef %19, ptr noundef null)
  %21 = icmp ne i32 %20, 0
  br i1 %21, label %26, label %22

22:                                               ; preds = %15
  %23 = load ptr, ptr %4, align 8, !tbaa !13
  %24 = getelementptr inbounds nuw %struct.ossl_sha256_ctx, ptr %23, i32 0, i32 0
  %25 = load ptr, ptr %24, align 8, !tbaa !15
  call void @EVP_MD_CTX_free(ptr noundef %25)
  store i32 2, ptr %2, align 4
  store i32 1, ptr %5, align 4
  br label %27

26:                                               ; preds = %15
  store i32 0, ptr %2, align 4
  store i32 1, ptr %5, align 4
  br label %27

27:                                               ; preds = %26, %22, %14
  call void @llvm.lifetime.end.p0(i64 8, ptr %4) #3
  %28 = load i32, ptr %2, align 4
  ret i32 %28
}

; Function Attrs: nounwind uwtable
define internal void @my_sha256_update(ptr noundef %0, ptr noundef %1, i32 noundef %2) #0 {
  %4 = alloca ptr, align 8
  %5 = alloca ptr, align 8
  %6 = alloca i32, align 4
  %7 = alloca ptr, align 8
  store ptr %0, ptr %4, align 8, !tbaa !12
  store ptr %1, ptr %5, align 8, !tbaa !3
  store i32 %2, ptr %6, align 4, !tbaa !10
  call void @llvm.lifetime.start.p0(i64 8, ptr %7) #3
  %8 = load ptr, ptr %4, align 8, !tbaa !12
  store ptr %8, ptr %7, align 8, !tbaa !13
  %9 = load ptr, ptr %7, align 8, !tbaa !13
  %10 = getelementptr inbounds nuw %struct.ossl_sha256_ctx, ptr %9, i32 0, i32 0
  %11 = load ptr, ptr %10, align 8, !tbaa !15
  %12 = load ptr, ptr %5, align 8, !tbaa !3
  %13 = load i32, ptr %6, align 4, !tbaa !10
  %14 = zext i32 %13 to i64
  %15 = call i32 @EVP_DigestUpdate(ptr noundef %11, ptr noundef %12, i64 noundef %14)
  call void @llvm.lifetime.end.p0(i64 8, ptr %7) #3
  ret void
}

declare i32 @curlx_uztoui(i64 noundef) #2

; Function Attrs: nounwind uwtable
define internal void @my_sha256_final(ptr noundef %0, ptr noundef %1) #0 {
  %3 = alloca ptr, align 8
  %4 = alloca ptr, align 8
  %5 = alloca ptr, align 8
  store ptr %0, ptr %3, align 8, !tbaa !3
  store ptr %1, ptr %4, align 8, !tbaa !12
  call void @llvm.lifetime.start.p0(i64 8, ptr %5) #3
  %6 = load ptr, ptr %4, align 8, !tbaa !12
  store ptr %6, ptr %5, align 8, !tbaa !13
  %7 = load ptr, ptr %5, align 8, !tbaa !13
  %8 = getelementptr inbounds nuw %struct.ossl_sha256_ctx, ptr %7, i32 0, i32 0
  %9 = load ptr, ptr %8, align 8, !tbaa !15
  %10 = load ptr, ptr %3, align 8, !tbaa !3
  %11 = call i32 @EVP_DigestFinal_ex(ptr noundef %9, ptr noundef %10, ptr noundef null)
  %12 = load ptr, ptr %5, align 8, !tbaa !13
  %13 = getelementptr inbounds nuw %struct.ossl_sha256_ctx, ptr %12, i32 0, i32 0
  %14 = load ptr, ptr %13, align 8, !tbaa !15
  call void @EVP_MD_CTX_free(ptr noundef %14)
  call void @llvm.lifetime.end.p0(i64 8, ptr %5) #3
  ret void
}

; Function Attrs: nocallback nofree nosync nounwind willreturn memory(argmem: readwrite)
declare void @llvm.lifetime.end.p0(i64 immarg, ptr captures(none)) #1

declare ptr @EVP_MD_CTX_new() #2

declare i32 @EVP_DigestInit_ex(ptr noundef, ptr noundef, ptr noundef) #2

declare ptr @EVP_sha256() #2

declare void @EVP_MD_CTX_free(ptr noundef) #2

declare i32 @EVP_DigestUpdate(ptr noundef, ptr noundef, i64 noundef) #2

declare i32 @EVP_DigestFinal_ex(ptr noundef, ptr noundef, ptr noundef) #2


!llvm.module.flags = !{!0, !1, !2}

!0 = !{i32 1, !"wchar_size", i32 4}
!1 = !{i32 8, !"PIC Level", i32 2}
!2 = !{i32 7, !"uwtable", i32 2}
!3 = !{!4, !4, i64 0}
!4 = !{!"p1 omnipotent char", !5, i64 0}
!5 = !{!"any pointer", !6, i64 0}
!6 = !{!"omnipotent char", !7, i64 0}
!7 = !{!"Simple C/C++ TBAA"}
!8 = !{!9, !9, i64 0}
!9 = !{!"long", !6, i64 0}
!10 = !{!11, !11, i64 0}
!11 = !{!"int", !6, i64 0}
!12 = !{!5, !5, i64 0}
!13 = !{!14, !14, i64 0}
!14 = !{!"p1 _ZTS15ossl_sha256_ctx", !5, i64 0}
!15 = !{!16, !17, i64 0}
!16 = !{!"ossl_sha256_ctx", !17, i64 0}
!17 = !{!"p1 _ZTS13evp_md_ctx_st", !5, i64 0}
